; Function Attrs: mustprogress uwtable
define dso_local void @_ZN4Luau15BuiltinsFixtureC2Ebb(ptr noundef nonnull align 8 dereferenceable(2232) initializes((0, 9), (16, 32)) %0, i1 noundef zeroext %1, i1 noundef zeroext %2) unnamed_addr #6 align 2 personality ptr @__gxx_personality_v0 {
  tail call void @_ZN4Luau7FixtureC2Ebb(ptr noundef nonnull align 8 dereferenceable(2232) %0, i1 noundef zeroext %1, i1 zeroext poison)
  %4 = getelementptr inbounds nuw i8, ptr %0, i64 416
  %5 = getelementptr inbounds nuw i8, ptr %0, i64 992
  %6 = getelementptr inbounds nuw i8, ptr %0, i64 1000
  invoke void @_ZN4Luau8unfreezeERNS_9TypeArenaE(ptr noundef nonnull align 8 dereferenceable(88) %6)
          to label %7 unwind label %13

7:                                                ; preds = %3
  %8 = getelementptr inbounds nuw i8, ptr %0, i64 1344
  %9 = getelementptr inbounds nuw i8, ptr %0, i64 1352
  invoke void @_ZN4Luau8unfreezeERNS_9TypeArenaE(ptr noundef nonnull align 8 dereferenceable(88) %9)
          to label %10 unwind label %13

10:                                               ; preds = %7
  invoke void @_ZN4Luau22registerBuiltinGlobalsERNS_8FrontendERNS_11GlobalTypesEb(ptr noundef nonnull align 8 dereferenceable(1744) %4, ptr noundef nonnull align 8 dereferenceable(352) %5, i1 noundef zeroext false)
          to label %11 unwind label %13

11:                                               ; preds = %10
  br i1 %2, label %12, label %15

12:                                               ; preds = %11
  invoke void @_ZN4Luau22registerBuiltinGlobalsERNS_8FrontendERNS_11GlobalTypesEb(ptr noundef nonnull align 8 dereferenceable(1744) %4, ptr noundef nonnull align 8 dereferenceable(352) %8, i1 noundef zeroext true)
          to label %15 unwind label %13

13:                                               ; preds = %17, %16, %15, %12, %10, %7, %3
  %14 = landingpad { ptr, i32 }
          cleanup
  tail call void @_ZN4Luau7FixtureD2Ev(ptr noundef nonnull align 8 dereferenceable(2232) %0) #27
  resume { ptr, i32 } %14

15:                                               ; preds = %12, %11
  invoke void @_ZN4Luau7Fixture17registerTestTypesEv(ptr noundef nonnull align 8 dereferenceable(2232) %0)
          to label %16 unwind label %13

16:                                               ; preds = %15
  invoke void @_ZN4Luau6freezeERNS_9TypeArenaE(ptr noundef nonnull align 8 dereferenceable(88) %6)
          to label %17 unwind label %13

17:                                               ; preds = %16
  invoke void @_ZN4Luau6freezeERNS_9TypeArenaE(ptr noundef nonnull align 8 dereferenceable(88) %9)
          to label %18 unwind label %13

18:                                               ; preds = %17
  ret void
}